target datalayout = "e-m:e-p270:32:32-p271:32:32-p272:64:64-i64:64-i128:128-f80:128-n8:16:32:64-S128"
target triple = "x86_64-pc-linux-gnu"

%"class.icu_77::StringPiece" = type <{ ptr, i32, [4 x i8] }>

; Function Attrs: mustprogress nounwind uwtable
define linkonce_odr void @_ZN6icu_7711StringPieceC2EPKci(ptr noundef nonnull align 8 dereferenceable(12) %0, ptr noundef %1, i32 noundef %2) unnamed_addr #1 comdat align 2 {
  %4 = alloca ptr, align 8
  %5 = alloca ptr, align 8
  %6 = alloca i32, align 4
  store ptr %0, ptr %4, align 8, !tbaa !58
  store ptr %1, ptr %5, align 8, !tbaa !51
  store i32 %2, ptr %6, align 4, !tbaa !39
  %7 = load ptr, ptr %4, align 8
  %8 = getelementptr inbounds nuw %"class.icu_77::StringPiece", ptr %7, i32 0, i32 0
  %9 = load ptr, ptr %5, align 8, !tbaa !51
  store ptr %9, ptr %8, align 8, !tbaa !60
  %10 = getelementptr inbounds nuw %"class.icu_77::StringPiece", ptr %7, i32 0, i32 1
  %11 = load i32, ptr %6, align 4, !tbaa !39
  store i32 %11, ptr %10, align 8, !tbaa !62
  ret void
}

; Function Attrs: inlinehint mustprogress nounwind uwtable
define internal noundef signext i8 @_ZL9U_FAILURE10UErrorCode(i32 noundef %0) #6 {
  %2 = alloca i32, align 4
  store i32 %0, ptr %2, align 4, !tbaa !25
  %3 = load i32, ptr %2, align 4, !tbaa !25
  %4 = icmp sgt i32 %3, 0
  %5 = zext i1 %4 to i8
  ret i8 %5
}

; Function Attrs: mustprogress uwtable
define noundef i32 @_ZNK6icu_778Collator19internalCompareUTF8EPKciS2_iR10UErrorCode(ptr noundef nonnull align 8 dereferenceable(8) %0, ptr noundef %1, i32 noundef %2, ptr noundef %3, i32 noundef %4, ptr noundef nonnull align 4 dereferenceable(4) %5) unnamed_addr #3 align 2 {
  %7 = alloca i32, align 4
  %8 = alloca ptr, align 8
  %9 = alloca ptr, align 8
  %10 = alloca i32, align 4
  %11 = alloca ptr, align 8
  %12 = alloca i32, align 4
  %13 = alloca ptr, align 8
  %14 = alloca %"class.icu_77::StringPiece", align 8
  %15 = alloca %"class.icu_77::StringPiece", align 8
  store ptr %0, ptr %8, align 8, !tbaa !27
  store ptr %1, ptr %9, align 8, !tbaa !51
  store i32 %2, ptr %10, align 4, !tbaa !39
  store ptr %3, ptr %11, align 8, !tbaa !51
  store i32 %4, ptr %12, align 4, !tbaa !39
  store ptr %5, ptr %13, align 8, !tbaa !18
  %16 = load ptr, ptr %8, align 8
  %17 = load ptr, ptr %13, align 8, !tbaa !18
  %18 = load i32, ptr %17, align 4, !tbaa !25
  %19 = call noundef signext i8 @_ZL9U_FAILURE10UErrorCode(i32 noundef %18)
  %20 = icmp ne i8 %19, 0
  br i1 %20, label %21, label %22

21:                                               ; preds = %6
  store i32 0, ptr %7, align 4
  br label %64

22:                                               ; preds = %6
  %23 = load ptr, ptr %9, align 8, !tbaa !51
  %24 = icmp eq ptr %23, null
  br i1 %24, label %25, label %28

25:                                               ; preds = %22
  %26 = load i32, ptr %10, align 4, !tbaa !39
  %27 = icmp ne i32 %26, 0
  br i1 %27, label %34, label %28

28:                                               ; preds = %25, %22
  %29 = load ptr, ptr %11, align 8, !tbaa !51
  %30 = icmp eq ptr %29, null
  br i1 %30, label %31, label %36

31:                                               ; preds = %28
  %32 = load i32, ptr %12, align 4, !tbaa !39
  %33 = icmp ne i32 %32, 0
  br i1 %33, label %34, label %36

34:                                               ; preds = %31, %25
  %35 = load ptr, ptr %13, align 8, !tbaa !18
  store i32 1, ptr %35, align 4, !tbaa !25
  store i32 0, ptr %7, align 4
  br label %64

36:                                               ; preds = %31, %28
  call void @llvm.lifetime.start.p0(i64 16, ptr %14) #14
  %37 = load ptr, ptr %9, align 8, !tbaa !51
  %38 = load i32, ptr %10, align 4, !tbaa !39
  %39 = icmp slt i32 %38, 0
  br i1 %39, label %40, label %44

40:                                               ; preds = %36
  %41 = load ptr, ptr %9, align 8, !tbaa !51
  %42 = call i64 @strlen(ptr noundef %41) #9
  %43 = trunc i64 %42 to i32
  br label %46

44:                                               ; preds = %36
  %45 = load i32, ptr %10, align 4, !tbaa !39
  br label %46

46:                                               ; preds = %44, %40
  %47 = phi i32 [ %43, %40 ], [ %45, %44 ]
  call void @_ZN6icu_7711StringPieceC2EPKci(ptr noundef nonnull align 8 dereferenceable(12) %14, ptr noundef %37, i32 noundef %47)
  call void @llvm.lifetime.start.p0(i64 16, ptr %15) #14
  %48 = load ptr, ptr %11, align 8, !tbaa !51
  %49 = load i32, ptr %12, align 4, !tbaa !39
  %50 = icmp slt i32 %49, 0
  br i1 %50, label %51, label %55

51:                                               ; preds = %46
  %52 = load ptr, ptr %11, align 8, !tbaa !51
  %53 = call i64 @strlen(ptr noundef %52) #9
  %54 = trunc i64 %53 to i32
  br label %57

55:                                               ; preds = %46
  %56 = load i32, ptr %12, align 4, !tbaa !39
  br label %57

57:                                               ; preds = %55, %51
  %58 = phi i32 [ %54, %51 ], [ %56, %55 ]
  call void @_ZN6icu_7711StringPieceC2EPKci(ptr noundef nonnull align 8 dereferenceable(12) %15, ptr noundef %48, i32 noundef %58)
  %59 = load ptr, ptr %13, align 8, !tbaa !18
  %60 = load ptr, ptr %16, align 8, !tbaa !19
  %61 = getelementptr inbounds ptr, ptr %60, i64 13
  %62 = load ptr, ptr %61, align 8
  %63 = call noundef i32 %62(ptr noundef nonnull align 8 dereferenceable(8) %16, ptr noundef nonnull align 8 dereferenceable(12) %14, ptr noundef nonnull align 8 dereferenceable(12) %15, ptr noundef nonnull align 4 dereferenceable(4) %59)
  store i32 %63, ptr %7, align 4
  call void @llvm.lifetime.end.p0(i64 16, ptr %15) #14
  call void @llvm.lifetime.end.p0(i64 16, ptr %14) #14
  br label %64

64:                                               ; preds = %57, %34, %21
  %65 = load i32, ptr %7, align 4
  ret i32 %65
}