; Function Attrs: mustprogress uwtable
define noundef i32 @_ZNK6icu_778Collator19internalCompareUTF8EPKciS2_iR10UErrorCode(ptr noundef nonnull align 8 dereferenceable(8) %0, ptr noundef %1, i32 noundef %2, ptr noundef %3, i32 noundef %4, ptr noundef nonnull align 4 dereferenceable(4) %5) unnamed_addr #5 align 2 {
  %7 = alloca %"class.icu_77::StringPiece", align 8
  %8 = alloca %"class.icu_77::StringPiece", align 8
  %9 = load i32, ptr %5, align 4, !tbaa !6
  %10 = icmp slt i32 %9, 1
  br i1 %10, label %11, label %37

11:                                               ; preds = %6
  %12 = icmp eq ptr %1, null
  %13 = icmp ne i32 %2, 0
  %or.cond = and i1 %12, %13
  br i1 %or.cond, label %17, label %14

14:                                               ; preds = %11
  %15 = icmp eq ptr %3, null
  %16 = icmp ne i32 %4, 0
  %or.cond3 = and i1 %15, %16
  br i1 %or.cond3, label %17, label %18

17:                                               ; preds = %14, %11
  store i32 1, ptr %5, align 4, !tbaa !6
  br label %37

18:                                               ; preds = %14
  call void @llvm.lifetime.start.p0(i64 16, ptr nonnull %7) #16
  %19 = icmp slt i32 %2, 0
  br i1 %19, label %20, label %23

20:                                               ; preds = %18
  %21 = tail call i64 @strlen(ptr noundef nonnull dereferenceable(1) %1) #18
  %22 = trunc i64 %21 to i32
  br label %23

23:                                               ; preds = %18, %20
  %24 = phi i32 [ %22, %20 ], [ %2, %18 ]
  store ptr %1, ptr %7, align 8, !tbaa !34
  %25 = getelementptr inbounds nuw i8, ptr %7, i64 8
  store i32 %24, ptr %25, align 8, !tbaa !36
  call void @llvm.lifetime.start.p0(i64 16, ptr nonnull %8) #16
  %26 = icmp slt i32 %4, 0
  br i1 %26, label %27, label %30

27:                                               ; preds = %23
  %28 = tail call i64 @strlen(ptr noundef nonnull dereferenceable(1) %3) #18
  %29 = trunc i64 %28 to i32
  br label %30

30:                                               ; preds = %23, %27
  %31 = phi i32 [ %29, %27 ], [ %4, %23 ]
  store ptr %3, ptr %8, align 8, !tbaa !34
  %32 = getelementptr inbounds nuw i8, ptr %8, i64 8
  store i32 %31, ptr %32, align 8, !tbaa !36
  %33 = load ptr, ptr %0, align 8, !tbaa !3
  %34 = getelementptr inbounds nuw i8, ptr %33, i64 104
  %35 = load ptr, ptr %34, align 8
  %36 = call noundef i32 %35(ptr noundef nonnull align 8 dereferenceable(8) %0, ptr noundef nonnull align 8 dereferenceable(12) %7, ptr noundef nonnull align 8 dereferenceable(12) %8, ptr noundef nonnull align 4 dereferenceable(4) %5)
  call void @llvm.lifetime.end.p0(i64 16, ptr nonnull %8) #16
  call void @llvm.lifetime.end.p0(i64 16, ptr nonnull %7) #16
  br label %37

37:                                               ; preds = %6, %30, %17
  %.0 = phi i32 [ 0, %17 ], [ %36, %30 ], [ 0, %6 ]
  ret i32 %.0
}